target datalayout = "e-m:e-p270:32:32-p271:32:32-p272:64:64-i64:64-i128:128-f80:128-n8:16:32:64-S128"
target triple = "x86_64-pc-linux-gnu"

; Function Attrs: mustprogress uwtable
define internal noundef zeroext i1 @_ZN32pxrInternal_v0_24__pxrReserved__21pxr_double_conversion12_GLOBAL__N_120ConsumeSubStringImplIPKcPFccEEEbPT_S7_S4_T0_(ptr noundef %0, ptr noundef %1, ptr noundef %2, ptr noundef %3) #0 {
  %5 = alloca i1, align 1
  %6 = alloca ptr, align 8
  %7 = alloca ptr, align 8
  %8 = alloca ptr, align 8
  %9 = alloca ptr, align 8
  store ptr %0, ptr %6, align 8
  store ptr %1, ptr %7, align 8
  store ptr %2, ptr %8, align 8
  store ptr %3, ptr %9, align 8
  %10 = load ptr, ptr %8, align 8
  %11 = getelementptr inbounds i8, ptr %10, i32 1
  store ptr %11, ptr %8, align 8
  br label %12

12:                                               ; preds = %38, %4
  %13 = load ptr, ptr %8, align 8
  %14 = load i8, ptr %13, align 1
  %15 = sext i8 %14 to i32
  %16 = icmp ne i32 %15, 0
  br i1 %16, label %17, label %41

17:                                               ; preds = %12
  %18 = load ptr, ptr %6, align 8
  %19 = load ptr, ptr %18, align 8
  %20 = getelementptr inbounds i8, ptr %19, i32 1
  store ptr %20, ptr %18, align 8
  %21 = load ptr, ptr %6, align 8
  %22 = load ptr, ptr %21, align 8
  %23 = load ptr, ptr %7, align 8
  %24 = icmp eq ptr %22, %23
  br i1 %24, label %36, label %25

25:                                               ; preds = %17
  %26 = load ptr, ptr %9, align 8
  %27 = load ptr, ptr %6, align 8
  %28 = load ptr, ptr %27, align 8
  %29 = load i8, ptr %28, align 1
  %30 = call noundef signext i8 %26(i8 noundef signext %29)
  %31 = sext i8 %30 to i32
  %32 = load ptr, ptr %8, align 8
  %33 = load i8, ptr %32, align 1
  %34 = sext i8 %33 to i32
  %35 = icmp ne i32 %31, %34
  br i1 %35, label %36, label %37

36:                                               ; preds = %25, %17
  store i1 false, ptr %5, align 1
  br label %45

37:                                               ; preds = %25
  br label %38

38:                                               ; preds = %37
  %39 = load ptr, ptr %8, align 8
  %40 = getelementptr inbounds i8, ptr %39, i32 1
  store ptr %40, ptr %8, align 8
  br label %12, !llvm.loop !33

41:                                               ; preds = %12
  %42 = load ptr, ptr %6, align 8
  %43 = load ptr, ptr %42, align 8
  %44 = getelementptr inbounds i8, ptr %43, i32 1
  store ptr %44, ptr %42, align 8
  store i1 true, ptr %5, align 1
  br label %45

45:                                               ; preds = %41, %36
  %46 = load i1, ptr %5, align 1
  ret i1 %46
}

; Function Attrs: mustprogress uwtable
define internal noundef zeroext i1 @_ZN32pxrInternal_v0_24__pxrReserved__21pxr_double_conversion12_GLOBAL__N_116ConsumeSubStringIPKcEEbPT_S5_S4_b(ptr noundef %0, ptr noundef %1, ptr noundef %2, i1 noundef zeroext %3) #0 {
  %5 = alloca i1, align 1
  %6 = alloca ptr, align 8
  %7 = alloca ptr, align 8
  %8 = alloca ptr, align 8
  %9 = alloca i8, align 1
  store ptr %0, ptr %6, align 8
  store ptr %1, ptr %7, align 8
  store ptr %2, ptr %8, align 8
  %10 = zext i1 %3 to i8
  store i8 %10, ptr %9, align 1
  %11 = load i8, ptr %9, align 1
  %12 = trunc i8 %11 to i1
  br i1 %12, label %13, label %18

13:                                               ; preds = %4
  %14 = load ptr, ptr %6, align 8
  %15 = load ptr, ptr %7, align 8
  %16 = load ptr, ptr %8, align 8
  %17 = call noundef zeroext i1 @_ZN32pxrInternal_v0_24__pxrReserved__21pxr_double_conversion12_GLOBAL__N_120ConsumeSubStringImplIPKcPFccEEEbPT_S7_S4_T0_(ptr noundef %14, ptr noundef %15, ptr noundef %16, ptr noundef @_ZN32pxrInternal_v0_24__pxrReserved__21pxr_double_conversion12_GLOBAL__N_17ToLowerEc)
  store i1 %17, ptr %5, align 1
  br label %23

18:                                               ; preds = %4
  %19 = load ptr, ptr %6, align 8
  %20 = load ptr, ptr %7, align 8
  %21 = load ptr, ptr %8, align 8
  %22 = call noundef zeroext i1 @_ZN32pxrInternal_v0_24__pxrReserved__21pxr_double_conversion12_GLOBAL__N_120ConsumeSubStringImplIPKcPFccEEEbPT_S7_S4_T0_(ptr noundef %19, ptr noundef %20, ptr noundef %21, ptr noundef @_ZN32pxrInternal_v0_24__pxrReserved__21pxr_double_conversion12_GLOBAL__N_14PassEc)
  store i1 %22, ptr %5, align 1
  br label %23

23:                                               ; preds = %18, %13
  %24 = load i1, ptr %5, align 1
  ret i1 %24
}